; Function Attrs: mustprogress uwtable
define void @_ZN10open_spiel17morpion_solitaire4LineC2ENS0_5PointES2_(ptr nocapture noundef nonnull align 8 dereferenceable(48) %0, i64 %1, i64 %2) unnamed_addr #3 align 2 personality ptr @__gxx_personality_v0 {
  tail call void @llvm.memset.p0.i64(ptr noundef nonnull align 8 dereferenceable(48) %0, i8 0, i64 48, i1 false)
  invoke void @_ZN10open_spiel17morpion_solitaire4Line4InitENS0_5PointES2_(ptr noundef nonnull align 8 dereferenceable(48) %0, i64 %1, i64 %2)
          to label %4 unwind label %5

4:                                                ; preds = %3
  ret void

5:                                                ; preds = %3
  %6 = landingpad { ptr, i32 }
          cleanup
  %7 = getelementptr inbounds nuw i8, ptr %0, i64 24
  %8 = load ptr, ptr %7, align 8
  %.not.i.i.i = icmp eq ptr %8, null
  br i1 %.not.i.i.i, label %_ZNSt6vectorIN10open_spiel17morpion_solitaire5PointESaIS2_EED2Ev.exit, label %9

9:                                                ; preds = %5
  %10 = getelementptr inbounds i8, ptr %0, i64 40
  %11 = load ptr, ptr %10, align 8
  %12 = ptrtoint ptr %11 to i64
  %13 = ptrtoint ptr %8 to i64
  %14 = sub i64 %12, %13
  tail call void @_ZdlPvm(ptr noundef nonnull %8, i64 noundef %14) #27
  br label %_ZNSt6vectorIN10open_spiel17morpion_solitaire5PointESaIS2_EED2Ev.exit

_ZNSt6vectorIN10open_spiel17morpion_solitaire5PointESaIS2_EED2Ev.exit: ; preds = %5, %9
  resume { ptr, i32 } %6
}